target datalayout = "e-m:e-p270:32:32-p271:32:32-p272:64:64-i64:64-i128:128-f80:128-n8:16:32:64-S128"
target triple = "x86_64-pc-linux-gnu"

%"struct.XDR::xdr_ops" = type { ptr, ptr, ptr, ptr, ptr, ptr, ptr, ptr, ptr, ptr }
%struct.XDR = type { i32, ptr, ptr, ptr, ptr, i32 }

@_ZL8xdr_zero = internal global [4 x i8] zeroinitializer, align 1
@.str = private unnamed_addr constant [27 x i8] c"xdr_string: out of memory\0A\00", align 1
@stderr = external global ptr, align 8

; Function Attrs: mustprogress uwtable
define noundef i32 @_Z10xdr_opaqueP3XDRPcj(ptr noundef %0, ptr noundef %1, i32 noundef %2) #0 {
  %4 = alloca i32, align 4
  %5 = alloca ptr, align 8
  %6 = alloca ptr, align 8
  %7 = alloca i32, align 4
  %8 = alloca i32, align 4
  %9 = alloca [4 x i8], align 1
  store ptr %0, ptr %5, align 8
  store ptr %1, ptr %6, align 8
  store i32 %2, ptr %7, align 4
  %10 = load i32, ptr %7, align 4
  %11 = icmp eq i32 %10, 0
  br i1 %11, label %12, label %13

12:                                               ; preds = %3
  store i32 1, ptr %4, align 4
  br label %78

13:                                               ; preds = %3
  %14 = load i32, ptr %7, align 4
  %15 = urem i32 %14, 4
  store i32 %15, ptr %8, align 4
  %16 = load i32, ptr %8, align 4
  %17 = icmp ugt i32 %16, 0
  br i1 %17, label %18, label %21

18:                                               ; preds = %13
  %19 = load i32, ptr %8, align 4
  %20 = sub i32 4, %19
  store i32 %20, ptr %8, align 4
  br label %21

21:                                               ; preds = %18, %13
  %22 = load ptr, ptr %5, align 8
  %23 = getelementptr inbounds %struct.XDR, ptr %22, i32 0, i32 0
  %24 = load i32, ptr %23, align 8
  switch i32 %24, label %77 [
    i32 1, label %25
    i32 0, label %51
    i32 2, label %76
  ]

25:                                               ; preds = %21
  %26 = load ptr, ptr %5, align 8
  %27 = getelementptr inbounds %struct.XDR, ptr %26, i32 0, i32 1
  %28 = load ptr, ptr %27, align 8
  %29 = getelementptr inbounds %"struct.XDR::xdr_ops", ptr %28, i32 0, i32 0
  %30 = load ptr, ptr %29, align 8
  %31 = load ptr, ptr %5, align 8
  %32 = load ptr, ptr %6, align 8
  %33 = load i32, ptr %7, align 4
  %34 = call noundef i32 %30(ptr noundef %31, ptr noundef %32, i32 noundef %33)
  %35 = icmp ne i32 %34, 0
  br i1 %35, label %37, label %36

36:                                               ; preds = %25
  store i32 0, ptr %4, align 4
  br label %78

37:                                               ; preds = %25
  %38 = load i32, ptr %8, align 4
  %39 = icmp eq i32 %38, 0
  br i1 %39, label %40, label %41

40:                                               ; preds = %37
  store i32 1, ptr %4, align 4
  br label %78

41:                                               ; preds = %37
  %42 = load ptr, ptr %5, align 8
  %43 = getelementptr inbounds %struct.XDR, ptr %42, i32 0, i32 1
  %44 = load ptr, ptr %43, align 8
  %45 = getelementptr inbounds %"struct.XDR::xdr_ops", ptr %44, i32 0, i32 0
  %46 = load ptr, ptr %45, align 8
  %47 = load ptr, ptr %5, align 8
  %48 = getelementptr inbounds [4 x i8], ptr %9, i64 0, i64 0
  %49 = load i32, ptr %8, align 4
  %50 = call noundef i32 %46(ptr noundef %47, ptr noundef %48, i32 noundef %49)
  store i32 %50, ptr %4, align 4
  br label %78

51:                                               ; preds = %21
  %52 = load ptr, ptr %5, align 8
  %53 = getelementptr inbounds %struct.XDR, ptr %52, i32 0, i32 1
  %54 = load ptr, ptr %53, align 8
  %55 = getelementptr inbounds %"struct.XDR::xdr_ops", ptr %54, i32 0, i32 1
  %56 = load ptr, ptr %55, align 8
  %57 = load ptr, ptr %5, align 8
  %58 = load ptr, ptr %6, align 8
  %59 = load i32, ptr %7, align 4
  %60 = call noundef i32 %56(ptr noundef %57, ptr noundef %58, i32 noundef %59)
  %61 = icmp ne i32 %60, 0
  br i1 %61, label %63, label %62

62:                                               ; preds = %51
  store i32 0, ptr %4, align 4
  br label %78

63:                                               ; preds = %51
  %64 = load i32, ptr %8, align 4
  %65 = icmp eq i32 %64, 0
  br i1 %65, label %66, label %67

66:                                               ; preds = %63
  store i32 1, ptr %4, align 4
  br label %78

67:                                               ; preds = %63
  %68 = load ptr, ptr %5, align 8
  %69 = getelementptr inbounds %struct.XDR, ptr %68, i32 0, i32 1
  %70 = load ptr, ptr %69, align 8
  %71 = getelementptr inbounds %"struct.XDR::xdr_ops", ptr %70, i32 0, i32 1
  %72 = load ptr, ptr %71, align 8
  %73 = load ptr, ptr %5, align 8
  %74 = load i32, ptr %8, align 4
  %75 = call noundef i32 %72(ptr noundef %73, ptr noundef @_ZL8xdr_zero, i32 noundef %74)
  store i32 %75, ptr %4, align 4
  br label %78

76:                                               ; preds = %21
  store i32 1, ptr %4, align 4
  br label %78

77:                                               ; preds = %21
  store i32 0, ptr %4, align 4
  br label %78

78:                                               ; preds = %77, %76, %67, %66, %62, %41, %40, %36, %12
  %79 = load i32, ptr %4, align 4
  ret i32 %79
}

; Function Attrs: mustprogress uwtable
define noundef i32 @_Z9xdr_u_intP3XDRPj(ptr noundef %0, ptr noundef %1) #0 {
  %3 = alloca i32, align 4
  %4 = alloca ptr, align 8
  %5 = alloca ptr, align 8
  %6 = alloca i32, align 4
  store ptr %0, ptr %4, align 8
  store ptr %1, ptr %5, align 8
  %7 = load ptr, ptr %4, align 8
  %8 = getelementptr inbounds %struct.XDR, ptr %7, i32 0, i32 0
  %9 = load i32, ptr %8, align 8
  switch i32 %9, label %34 [
    i32 0, label %10
    i32 1, label %20
    i32 2, label %33
  ]

10:                                               ; preds = %2
  %11 = load ptr, ptr %5, align 8
  %12 = load i32, ptr %11, align 4
  store i32 %12, ptr %6, align 4
  %13 = load ptr, ptr %4, align 8
  %14 = getelementptr inbounds %struct.XDR, ptr %13, i32 0, i32 1
  %15 = load ptr, ptr %14, align 8
  %16 = getelementptr inbounds %"struct.XDR::xdr_ops", ptr %15, i32 0, i32 9
  %17 = load ptr, ptr %16, align 8
  %18 = load ptr, ptr %4, align 8
  %19 = call noundef i32 %17(ptr noundef %18, ptr noundef %6)
  store i32 %19, ptr %3, align 4
  br label %35

20:                                               ; preds = %2
  %21 = load ptr, ptr %4, align 8
  %22 = getelementptr inbounds %struct.XDR, ptr %21, i32 0, i32 1
  %23 = load ptr, ptr %22, align 8
  %24 = getelementptr inbounds %"struct.XDR::xdr_ops", ptr %23, i32 0, i32 8
  %25 = load ptr, ptr %24, align 8
  %26 = load ptr, ptr %4, align 8
  %27 = call noundef i32 %25(ptr noundef %26, ptr noundef %6)
  %28 = icmp ne i32 %27, 0
  br i1 %28, label %30, label %29

29:                                               ; preds = %20
  store i32 0, ptr %3, align 4
  br label %35

30:                                               ; preds = %20
  %31 = load i32, ptr %6, align 4
  %32 = load ptr, ptr %5, align 8
  store i32 %31, ptr %32, align 4
  store i32 1, ptr %3, align 4
  br label %35

33:                                               ; preds = %2
  store i32 1, ptr %3, align 4
  br label %35

34:                                               ; preds = %2
  store i32 0, ptr %3, align 4
  br label %35

35:                                               ; preds = %34, %33, %30, %29, %10
  %36 = load i32, ptr %3, align 4
  ret i32 %36
}

; Function Attrs: mustprogress uwtable
define noundef i32 @_Z10xdr_stringP3XDRPPcj(ptr noundef %0, ptr noundef %1, i32 noundef %2) #0 {
  %4 = alloca i32, align 4
  %5 = alloca ptr, align 8
  %6 = alloca ptr, align 8
  %7 = alloca i32, align 4
  %8 = alloca ptr, align 8
  %9 = alloca i32, align 4
  %10 = alloca i32, align 4
  store ptr %0, ptr %5, align 8
  store ptr %1, ptr %6, align 8
  store i32 %2, ptr %7, align 4
  %11 = load ptr, ptr %6, align 8
  %12 = load ptr, ptr %11, align 8
  store ptr %12, ptr %8, align 8
  store i32 0, ptr %9, align 4
  store i32 0, ptr %10, align 4
  %13 = load ptr, ptr %5, align 8
  %14 = getelementptr inbounds %struct.XDR, ptr %13, i32 0, i32 0
  %15 = load i32, ptr %14, align 8
  switch i32 %15, label %33 [
    i32 2, label %16
    i32 0, label %24
    i32 1, label %32
  ]

16:                                               ; preds = %3
  %17 = load ptr, ptr %8, align 8
  %18 = icmp eq ptr %17, null
  br i1 %18, label %19, label %20

19:                                               ; preds = %16
  store i32 1, ptr %4, align 4
  br label %85

20:                                               ; preds = %16
  %21 = load ptr, ptr %8, align 8
  %22 = call i64 @strlen(ptr noundef %21) #7
  %23 = trunc i64 %22 to i32
  store i32 %23, ptr %9, align 4
  br label %33

24:                                               ; preds = %3
  %25 = load ptr, ptr %8, align 8
  %26 = icmp eq ptr %25, null
  br i1 %26, label %27, label %28

27:                                               ; preds = %24
  store i32 0, ptr %4, align 4
  br label %85

28:                                               ; preds = %24
  %29 = load ptr, ptr %8, align 8
  %30 = call i64 @strlen(ptr noundef %29) #7
  %31 = trunc i64 %30 to i32
  store i32 %31, ptr %9, align 4
  br label %33

32:                                               ; preds = %3
  br label %33

33:                                               ; preds = %32, %28, %20, %3
  %34 = load ptr, ptr %5, align 8
  %35 = call noundef i32 @_Z9xdr_u_intP3XDRPj(ptr noundef %34, ptr noundef %9)
  %36 = icmp ne i32 %35, 0
  br i1 %36, label %38, label %37

37:                                               ; preds = %33
  store i32 0, ptr %4, align 4
  br label %85

38:                                               ; preds = %33
  %39 = load i32, ptr %9, align 4
  %40 = load i32, ptr %7, align 4
  %41 = icmp ugt i32 %39, %40
  br i1 %41, label %42, label %43

42:                                               ; preds = %38
  store i32 0, ptr %4, align 4
  br label %85

43:                                               ; preds = %38
  %44 = load i32, ptr %9, align 4
  %45 = add i32 %44, 1
  store i32 %45, ptr %10, align 4
  %46 = load ptr, ptr %5, align 8
  %47 = getelementptr inbounds %struct.XDR, ptr %46, i32 0, i32 0
  %48 = load i32, ptr %47, align 8
  switch i32 %48, label %84 [
    i32 1, label %49
    i32 0, label %76
    i32 2, label %81
  ]

49:                                               ; preds = %43
  %50 = load i32, ptr %10, align 4
  %51 = icmp eq i32 %50, 0
  br i1 %51, label %52, label %53

52:                                               ; preds = %49
  store i32 1, ptr %4, align 4
  br label %85

53:                                               ; preds = %49
  %54 = load ptr, ptr %8, align 8
  %55 = icmp eq ptr %54, null
  br i1 %55, label %56, label %61

56:                                               ; preds = %53
  %57 = load i32, ptr %10, align 4
  %58 = zext i32 %57 to i64
  %59 = call noalias ptr @malloc(i64 noundef %58) #8
  store ptr %59, ptr %8, align 8
  %60 = load ptr, ptr %6, align 8
  store ptr %59, ptr %60, align 8
  br label %61

61:                                               ; preds = %56, %53
  %62 = load ptr, ptr %8, align 8
  %63 = icmp eq ptr %62, null
  br i1 %63, label %64, label %67

64:                                               ; preds = %61
  %65 = load ptr, ptr @stderr, align 8
  %66 = call i32 @fputs(ptr noundef @.str, ptr noundef %65)
  store i32 0, ptr %4, align 4
  br label %85

67:                                               ; preds = %61
  %68 = load ptr, ptr %8, align 8
  %69 = load i32, ptr %9, align 4
  %70 = zext i32 %69 to i64
  %71 = getelementptr inbounds i8, ptr %68, i64 %70
  store i8 0, ptr %71, align 1
  %72 = load ptr, ptr %5, align 8
  %73 = load ptr, ptr %8, align 8
  %74 = load i32, ptr %9, align 4
  %75 = call noundef i32 @_Z10xdr_opaqueP3XDRPcj(ptr noundef %72, ptr noundef %73, i32 noundef %74)
  store i32 %75, ptr %4, align 4
  br label %85

76:                                               ; preds = %43
  %77 = load ptr, ptr %5, align 8
  %78 = load ptr, ptr %8, align 8
  %79 = load i32, ptr %9, align 4
  %80 = call noundef i32 @_Z10xdr_opaqueP3XDRPcj(ptr noundef %77, ptr noundef %78, i32 noundef %79)
  store i32 %80, ptr %4, align 4
  br label %85

81:                                               ; preds = %43
  %82 = load ptr, ptr %8, align 8
  call void @free(ptr noundef %82) #9
  %83 = load ptr, ptr %6, align 8
  store ptr null, ptr %83, align 8
  store i32 1, ptr %4, align 4
  br label %85

84:                                               ; preds = %43
  store i32 0, ptr %4, align 4
  br label %85

85:                                               ; preds = %84, %81, %76, %67, %64, %52, %42, %37, %27, %19
  %86 = load i32, ptr %4, align 4
  ret i32 %86
}