; Function Attrs: mustprogress uwtable
define noundef i32 @_Z10xdr_stringP3XDRPPcj(ptr noundef %0, ptr nocapture noundef %1, i32 noundef %2) local_unnamed_addr #0 {
  %4 = alloca [4 x i8], align 1
  %5 = alloca i32, align 4
  %6 = load ptr, ptr %1, align 8
  %7 = load i32, ptr %0, align 8
  switch i32 %7, label %21 [
    i32 2, label %8
    i32 0, label %12
  ]

8:                                                ; preds = %3
  %9 = icmp eq ptr %6, null
  br i1 %9, label %_Z10xdr_opaqueP3XDRPcj.exit36, label %.thread43

.thread43:                                        ; preds = %8
  %10 = tail call i64 @strlen(ptr noundef nonnull dereferenceable(1) %6) #9
  %11 = trunc i64 %10 to i32
  call void @llvm.lifetime.start.p0(i64 4, ptr nonnull %5)
  br label %_Z9xdr_u_intP3XDRPj.exit.thread

12:                                               ; preds = %3
  %13 = icmp eq ptr %6, null
  br i1 %13, label %_Z10xdr_opaqueP3XDRPcj.exit36, label %.thread

.thread:                                          ; preds = %12
  %14 = tail call i64 @strlen(ptr noundef nonnull dereferenceable(1) %6) #9
  %15 = trunc i64 %14 to i32
  call void @llvm.lifetime.start.p0(i64 4, ptr nonnull %5)
  store i32 %15, ptr %5, align 4
  %16 = getelementptr inbounds i8, ptr %0, i64 8
  %17 = load ptr, ptr %16, align 8
  %18 = getelementptr inbounds i8, ptr %17, i64 72
  %19 = load ptr, ptr %18, align 8
  %20 = call noundef i32 %19(ptr noundef nonnull %0, ptr noundef nonnull %5)
  call void @llvm.lifetime.end.p0(i64 4, ptr nonnull %5)
  %.not = icmp eq i32 %20, 0
  br i1 %.not, label %_Z10xdr_opaqueP3XDRPcj.exit36, label %30

21:                                               ; preds = %3
  call void @llvm.lifetime.start.p0(i64 4, ptr nonnull %5)
  %cond = icmp eq i32 %7, 1
  br i1 %cond, label %22, label %_Z9xdr_u_intP3XDRPj.exit.thread50

22:                                               ; preds = %21
  %23 = getelementptr inbounds i8, ptr %0, i64 8
  %24 = load ptr, ptr %23, align 8
  %25 = getelementptr inbounds i8, ptr %24, i64 64
  %26 = load ptr, ptr %25, align 8
  %27 = call noundef i32 %26(ptr noundef nonnull %0, ptr noundef nonnull %5)
  %.not.i = icmp eq i32 %27, 0
  br i1 %.not.i, label %_Z9xdr_u_intP3XDRPj.exit.thread50, label %28

28:                                               ; preds = %22
  %29 = load i32, ptr %5, align 4
  br label %_Z9xdr_u_intP3XDRPj.exit.thread

_Z9xdr_u_intP3XDRPj.exit.thread:                  ; preds = %28, %.thread43
  %.1.ph = phi i32 [ %11, %.thread43 ], [ %29, %28 ]
  call void @llvm.lifetime.end.p0(i64 4, ptr nonnull %5)
  br label %30

_Z9xdr_u_intP3XDRPj.exit.thread50:                ; preds = %21, %22
  call void @llvm.lifetime.end.p0(i64 4, ptr nonnull %5)
  br label %_Z10xdr_opaqueP3XDRPcj.exit36

30:                                               ; preds = %_Z9xdr_u_intP3XDRPj.exit.thread, %.thread
  %.148 = phi i32 [ %.1.ph, %_Z9xdr_u_intP3XDRPj.exit.thread ], [ %15, %.thread ]
  %31 = icmp ugt i32 %.148, %2
  br i1 %31, label %_Z10xdr_opaqueP3XDRPcj.exit36, label %32

32:                                               ; preds = %30
  %33 = add i32 %.148, 1
  %34 = load i32, ptr %0, align 8
  switch i32 %34, label %_Z10xdr_opaqueP3XDRPcj.exit36 [
    i32 1, label %35
    i32 0, label %74
    i32 2, label %89
  ]

35:                                               ; preds = %32
  %36 = icmp eq i32 %33, 0
  br i1 %36, label %_Z10xdr_opaqueP3XDRPcj.exit36, label %37

37:                                               ; preds = %35
  %38 = icmp eq ptr %6, null
  br i1 %38, label %39, label %.thread54

39:                                               ; preds = %37
  %40 = zext i32 %33 to i64
  %41 = call noalias ptr @malloc(i64 noundef %40) #10
  store ptr %41, ptr %1, align 8
  %42 = icmp eq ptr %41, null
  br i1 %42, label %43, label %.thread54

43:                                               ; preds = %39
  %44 = load ptr, ptr @stderr, align 8
  %45 = call i64 @fwrite(ptr nonnull @.str, i64 26, i64 1, ptr %44) #11
  br label %_Z10xdr_opaqueP3XDRPcj.exit36

.thread54:                                        ; preds = %37, %39
  %.056 = phi ptr [ %41, %39 ], [ %6, %37 ]
  %46 = zext i32 %.148 to i64
  %47 = getelementptr inbounds i8, ptr %.056, i64 %46
  store i8 0, ptr %47, align 1
  call void @llvm.lifetime.start.p0(i64 4, ptr nonnull %4)
  %48 = icmp eq i32 %.148, 0
  br i1 %48, label %_Z10xdr_opaqueP3XDRPcj.exit, label %49

49:                                               ; preds = %.thread54
  %50 = and i32 %.148, 3
  %.not.i25 = icmp eq i32 %50, 0
  %51 = sub nuw nsw i32 4, %50
  %52 = load i32, ptr %0, align 8
  switch i32 %52, label %73 [
    i32 1, label %53
    i32 0, label %62
    i32 2, label %_Z10xdr_opaqueP3XDRPcj.exit
  ]

53:                                               ; preds = %49
  %54 = getelementptr inbounds i8, ptr %0, i64 8
  %55 = load ptr, ptr %54, align 8
  %56 = load ptr, ptr %55, align 8
  %57 = call noundef i32 %56(ptr noundef nonnull %0, ptr noundef nonnull %.056, i32 noundef %.148)
  %.not25.i = icmp eq i32 %57, 0
  %brmerge.i = or i1 %.not.i25, %.not25.i
  %not..not25.i = xor i1 %.not25.i, true
  %.mux.i = zext i1 %not..not25.i to i32
  br i1 %brmerge.i, label %_Z10xdr_opaqueP3XDRPcj.exit, label %58

58:                                               ; preds = %53
  %59 = load ptr, ptr %54, align 8
  %60 = load ptr, ptr %59, align 8
  %61 = call noundef i32 %60(ptr noundef nonnull %0, ptr noundef nonnull %4, i32 noundef %51)
  br label %_Z10xdr_opaqueP3XDRPcj.exit

62:                                               ; preds = %49
  %63 = getelementptr inbounds i8, ptr %0, i64 8
  %64 = load ptr, ptr %63, align 8
  %65 = getelementptr inbounds i8, ptr %64, i64 8
  %66 = load ptr, ptr %65, align 8
  %67 = call noundef i32 %66(ptr noundef nonnull %0, ptr noundef nonnull %.056, i32 noundef %.148)
  %.not24.i = icmp eq i32 %67, 0
  %brmerge26.i = or i1 %.not.i25, %.not24.i
  %not..not24.i = xor i1 %.not24.i, true
  %.mux27.i = zext i1 %not..not24.i to i32
  br i1 %brmerge26.i, label %_Z10xdr_opaqueP3XDRPcj.exit, label %68

68:                                               ; preds = %62
  %69 = load ptr, ptr %63, align 8
  %70 = getelementptr inbounds i8, ptr %69, i64 8
  %71 = load ptr, ptr %70, align 8
  %72 = call noundef i32 %71(ptr noundef nonnull %0, ptr noundef nonnull @_ZL8xdr_zero, i32 noundef %51)
  br label %_Z10xdr_opaqueP3XDRPcj.exit

73:                                               ; preds = %49
  br label %_Z10xdr_opaqueP3XDRPcj.exit

_Z10xdr_opaqueP3XDRPcj.exit:                      ; preds = %.thread54, %49, %53, %58, %62, %68, %73
  %.021.i = phi i32 [ 0, %73 ], [ %72, %68 ], [ %61, %58 ], [ 1, %.thread54 ], [ %.mux.i, %53 ], [ %.mux27.i, %62 ], [ 1, %49 ]
  call void @llvm.lifetime.end.p0(i64 4, ptr nonnull %4)
  br label %_Z10xdr_opaqueP3XDRPcj.exit36

74:                                               ; preds = %32
  %75 = icmp eq i32 %.148, 0
  br i1 %75, label %_Z10xdr_opaqueP3XDRPcj.exit36, label %76

76:                                               ; preds = %74
  %77 = and i32 %.148, 3
  %.not.i26 = icmp eq i32 %77, 0
  %78 = getelementptr inbounds i8, ptr %0, i64 8
  %79 = load ptr, ptr %78, align 8
  %80 = getelementptr inbounds i8, ptr %79, i64 8
  %81 = load ptr, ptr %80, align 8
  %82 = call noundef i32 %81(ptr noundef nonnull %0, ptr noundef %6, i32 noundef %.148)
  %.not24.i28 = icmp eq i32 %82, 0
  %brmerge26.i29 = or i1 %.not.i26, %.not24.i28
  %not..not24.i30 = xor i1 %.not24.i28, true
  %.mux27.i31 = zext i1 %not..not24.i30 to i32
  br i1 %brmerge26.i29, label %_Z10xdr_opaqueP3XDRPcj.exit36, label %83

83:                                               ; preds = %76
  %84 = sub nuw nsw i32 4, %77
  %85 = load ptr, ptr %78, align 8
  %86 = getelementptr inbounds i8, ptr %85, i64 8
  %87 = load ptr, ptr %86, align 8
  %88 = call noundef i32 %87(ptr noundef nonnull %0, ptr noundef nonnull @_ZL8xdr_zero, i32 noundef %84)
  br label %_Z10xdr_opaqueP3XDRPcj.exit36

89:                                               ; preds = %32
  call void @free(ptr noundef %6) #12
  store ptr null, ptr %1, align 8
  br label %_Z10xdr_opaqueP3XDRPcj.exit36

_Z10xdr_opaqueP3XDRPcj.exit36:                    ; preds = %83, %76, %74, %_Z9xdr_u_intP3XDRPj.exit.thread50, %32, %35, %30, %.thread, %12, %8, %89, %_Z10xdr_opaqueP3XDRPcj.exit, %43
  %.021 = phi i32 [ 1, %89 ], [ 0, %43 ], [ %.021.i, %_Z10xdr_opaqueP3XDRPcj.exit ], [ 1, %8 ], [ 0, %12 ], [ 0, %.thread ], [ 0, %30 ], [ 1, %35 ], [ 0, %32 ], [ 0, %_Z9xdr_u_intP3XDRPj.exit.thread50 ], [ %88, %83 ], [ 1, %74 ], [ %.mux27.i31, %76 ]
  ret i32 %.021
}